Certificate:
    Data:
        Version: 3 (0x2)
        Serial Number:
            7c:16:a3:36:9c:a7:fe:6b:79:ca:b6:33:1b:6e:a9:63:2b:20:13:a8
        Signature Algorithm: sha256WithRSAEncryption
        Issuer: C=AU, ST=Some-State, O=NSAA, OU=Certification, CN=NSAA Root CA
        Validity
            Not Before: Mar 21 16:56:34 2025 GMT
            Not After : Mar 21 16:56:34 2026 GMT
        Subject: C=AU, ST=Some-State, O=NSAA, OU=NSAA lab2 webapp, CN=webapp
        Subject Public Key Info:
            Public Key Algorithm: rsaEncryption
                Public-Key: (2048 bit)
                Modulus:
                    00:af:42:7e:ee:43:2e:ff:90:9d:eb:09:ea:9c:54:
                    6b:79:98:de:d4:35:9d:fd:89:d8:89:7a:a4:66:d1:
                    a8:b7:aa:6d:5b:a1:6a:c0:69:de:1d:6f:7a:58:26:
                    0e:65:c6:4a:5d:fb:32:75:54:88:96:8c:e8:58:8b:
                    bb:a9:4c:8a:78:80:92:f2:9a:c7:47:e3:a8:92:42:
                    74:66:dc:64:59:19:90:06:29:00:ec:28:34:ea:54:
                    43:70:f9:f5:36:da:e0:42:13:1d:9b:18:8b:fc:f5:
                    80:47:c7:5c:ba:d2:97:ac:f9:18:d0:43:89:8e:c8:
                    77:66:a8:8e:2a:9f:ce:8a:81:8c:32:5a:c8:be:88:
                    b8:1a:51:df:9f:28:24:77:04:b2:ad:57:bb:71:f8:
                    04:34:a5:1e:45:f1:ca:e4:47:dc:07:28:76:1a:0a:
                    e4:8f:42:9d:9a:99:66:aa:a7:dc:2a:82:26:bb:16:
                    bf:47:b2:a5:83:3e:b7:a7:da:9f:26:73:b0:9e:da:
                    52:4c:82:4b:09:ab:10:d5:c4:b7:c7:86:bb:65:ea:
                    0f:8a:f7:23:45:1b:ce:e2:bc:e9:fe:b6:8a:7a:b6:
                    0c:bc:70:32:df:be:88:36:fb:06:0d:87:ae:fe:04:
                    0e:86:43:3c:a7:ac:d8:30:e3:5e:d8:30:b4:a5:cc:
                    0f:83
                Exponent: 65537 (0x10001)
        X509v3 extensions:
            X509v3 Basic Constraints: 
                CA:FALSE
            X509v3 Subject Key Identifier: 
                1B:6C:A2:54:85:FB:F6:24:A0:22:D0:6D:19:4E:C5:03:21:4C:91:B5
            X509v3 Authority Key Identifier: 
                4F:61:4B:6B:B1:59:FC:3C:39:C5:49:DD:80:08:F6:38:AE:CD:9B:64
            Authority Information Access: 
                OCSP - URI:http://10.0.2.5
            X509v3 Key Usage: critical
                Digital Signature, Non Repudiation, Key Encipherment, Key Agreement
            X509v3 Extended Key Usage: critical
                TLS Web Server Authentication
            X509v3 Subject Alternative Name: 
                IP Address:10.0.2.5
    Signature Algorithm: sha256WithRSAEncryption
    Signature Value:
        00:e5:3a:2f:4e:bc:f7:f0:af:3e:be:b9:79:e7:5a:ff:e7:dd:
        06:6a:64:97:a9:c4:c5:43:94:3b:f4:5a:57:0e:5b:0f:f0:1a:
        15:fb:cd:8a:1a:42:a2:1a:8a:82:bd:fb:9a:24:d0:bb:f6:2f:
        fe:45:ae:cc:bc:3b:40:58:b4:82:b3:d5:df:60:ed:3f:81:9a:
        bd:d6:68:7f:b3:0a:b1:9b:83:cb:6e:b4:d0:28:1a:15:f8:03:
        19:9f:92:a7:b3:1d:5c:db:36:27:09:d9:a8:5e:41:bd:33:86:
        37:07:3e:88:75:06:e9:7b:68:0f:6c:7d:cc:f0:a2:ff:f1:98:
        96:a5:45:eb:da:61:73:a2:be:5e:b1:e3:33:e9:9f:ad:56:10:
        b8:aa:1d:05:15:36:da:21:0c:73:e2:2e:33:2f:0a:7d:d8:65:
        17:f7:03:87:ca:0e:d4:ff:3b:00:72:97:7c:7a:bf:2f:8a:ea:
        0c:6e:9b:6e:32:f6:a4:0b:37:6f:5d:09:dd:9d:82:1c:53:25:
        df:78:7d:b3:8a:65:ce:c1:b2:82:85:01:a4:fc:7d:96:3c:8b:
        6f:ed:a2:5e:87:5a:56:49:0d:06:88:a2:50:9f:9a:e2:79:42:
        d7:5a:de:d5:70:42:09:0f:20:79:67:48:28:04:c0:5b:67:ec:
        8c:ee:c9:ea:ab:1d:fc:7a:65:d7:e1:e5:96:29:6b:c2:5c:dd:
        a4:69:6a:45:c7:31:41:f2:00:c1:1a:87:24:e3:f4:09:70:96:
        1d:fb:f3:79:23:7e:46:c3:2b:ad:c9:21:1f:66:75:f2:41:59:
        9e:fb:e7:55:2d:c5:3a:e2:ef:5a:ba:9c:14:21:0f:ec:8c:aa:
        a0:ab:36:ae:91:03:f7:02:50:60:a1:f9:4f:30:de:e2:39:b6:
        e9:2a:26:15:08:4f:b9:77:ea:c6:98:9c:7a:d5:32:ab:8a:d7:
        05:24:36:21:d2:be:a0:6c:63:9f:2d:b1:a8:cc:15:14:fc:64:
        cd:f0:86:36:0f:a6:d2:39:54:d2:8b:b9:33:7c:9b:a2:d2:f6:
        07:6d:5b:55:42:d6:cb:00:96:46:63:2f:7d:5b:fe:e8:8f:50:
        c9:40:87:35:fd:bb:c4:e8:5b:87:61:4b:6a:2a:bd:58:f8:31:
        91:56:aa:75:12:74:28:72:a5:a9:4f:a2:1a:0f:00:6c:d1:c8:
        a9:3a:d7:8b:90:58:9e:f2:7b:a5:bd:8c:e5:c8:61:5b:6c:f4:
        9a:36:23:23:71:09:7b:d5:b7:67:77:76:f0:d6:9f:a8:48:4c:
        74:26:9a:7f:52:ec:1f:8b:99:4f:b6:07:a9:9c:d6:f9:36:43:
        69:99:8c:a7:41:ea:d6:a8
-----BEGIN CERTIFICATE-----
MIIFADCCAuigAwIBAgIUfBajNpyn/mt5yrYzG26pYysgE6gwDQYJKoZIhvcNAQEL
BQAwYDELMAkGA1UEBhMCQVUxEzARBgNVBAgMClNvbWUtU3RhdGUxDTALBgNVBAoM
BE5TQUExFjAUBgNVBAsMDUNlcnRpZmljYXRpb24xFTATBgNVBAMMDE5TQUEgUm9v
dCBDQTAeFw0yNTAzMjExNjU2MzRaFw0yNjAzMjExNjU2MzRaMF0xCzAJBgNVBAYT
AkFVMRMwEQYDVQQIDApTb21lLVN0YXRlMQ0wCwYDVQQKDAROU0FBMRkwFwYDVQQL
DBBOU0FBIGxhYjIgd2ViYXBwMQ8wDQYDVQQDDAZ3ZWJhcHAwggEiMA0GCSqGSIb3
DQEBAQUAA4IBDwAwggEKAoIBAQCvQn7uQy7/kJ3rCeqcVGt5mN7UNZ39idiJeqRm
0ai3qm1boWrAad4db3pYJg5lxkpd+zJ1VIiWjOhYi7upTIp4gJLymsdH46iSQnRm
3GRZGZAGKQDsKDTqVENw+fU22uBCEx2bGIv89YBHx1y60pes+RjQQ4mOyHdmqI4q
n86KgYwyWsi+iLgaUd+fKCR3BLKtV7tx+AQ0pR5F8crkR9wHKHYaCuSPQp2amWaq
p9wqgia7Fr9HsqWDPren2p8mc7Ce2lJMgksJqxDVxLfHhrtl6g+K9yNFG87ivOn+
top6tgy8cDLfvog2+wYNh67+BA6GQzynrNgw417YMLSlzA+DAgMBAAGjgbQwgbEw
CQYDVR0TBAIwADAdBgNVHQ4EFgQUG2yiVIX79iSgItBtGU7FAyFMkbUwHwYDVR0j
BBgwFoAUT2FLa7FZ/Dw5xUndgAj2OK7Nm2QwKwYIKwYBBQUHAQEEHzAdMBsGCCsG
AQUFBzABhg9odHRwOi8vMTAuMC4yLjUwDgYDVR0PAQH/BAQDAgPoMBYGA1UdJQEB
/wQMMAoGCCsGAQUFBwMBMA8GA1UdEQQIMAaHBAoAAgUwDQYJKoZIhvcNAQELBQAD
ggIBAADlOi9OvPfwrz6+uXnnWv/n3QZqZJepxMVDlDv0WlcOWw/wGhX7zYoaQqIa
ioK9+5ok0Lv2L/5Frsy8O0BYtIKz1d9g7T+Bmr3WaH+zCrGbg8tutNAoGhX4Axmf
kqezHVzbNicJ2aheQb0zhjcHPoh1Bul7aA9sfczwov/xmJalRevaYXOivl6x4zPp
n61WELiqHQUVNtohDHPiLjMvCn3YZRf3A4fKDtT/OwByl3x6vy+K6gxum24y9qQL
N29dCd2dghxTJd94fbOKZc7BsoKFAaT8fZY8i2/tol6HWlZJDQaIolCfmuJ5Qtda
3tVwQgkPIHlnSCgEwFtn7IzuyeqrHfx6Zdfh5ZYpa8Jc3aRpakXHMUHyAMEahyTj
9Alwlh3783kjfkbDK63JIR9mdfJBWZ7751UtxTri71q6nBQhD+yMqqCrNq6RA/cC
UGCh+U8w3uI5tukqJhUIT7l36saYnHrVMquK1wUkNiHSvqBsY58tsajMFRT8ZM3w
hjYPptI5VNKLuTN8m6LS9gdtW1VC1ssAlkZjL31b/uiPUMlAhzX9u8ToW4dhS2oq
vVj4MZFWqnUSdChypalPohoPAGzRyKk614uQWJ7ye6W9jOXIYVts9Jo2IyNxCXvV
t2d3dvDWn6hITHQmmn9S7B+LmU+2B6mc1vk2Q2mZjKdB6tao
-----END CERTIFICATE-----
